target datalayout = "e-m:e-p270:32:32-p271:32:32-p272:64:64-i64:64-i128:128-f80:128-n8:16:32:64-S128"
target triple = "x86_64-pc-linux-gnu"

%struct.OSSL_TIME = type { i64 }
%struct.terp_config_st = type { ptr, ptr, ptr, ptr, ptr, %struct.OSSL_TIME }
%struct.terp_st = type { %struct.terp_config_st, ptr, ptr, %struct.srdr_st, ptr, ptr, ptr, ptr, %struct.func_ctx_st, i64, i32, %struct.OSSL_TIME, %struct.OSSL_TIME }
%struct.srdr_st = type { ptr, ptr, ptr, ptr }
%struct.func_ctx_st = type { ptr, i32, i32 }
%struct.radix_thread_st = type { ptr, ptr, ptr, i64, i64, [8 x ptr], [8 x ptr], ptr, ptr, ptr, i32, i32, i64 }

@.str.42 = private unnamed_addr constant [29 x i8] c"../openssl/test/radix/terp.c\00", align 1
@.str.44 = private unnamed_addr constant [33 x i8] c"../openssl/test/radix/quic_ops.c\00", align 1
@.str.55 = private unnamed_addr constant [30 x i8] c"terp->stk_end - terp->stk_cur\00", align 1
@.str.56 = private unnamed_addr constant [8 x i8] c"buf_len\00", align 1
@.str.74 = private unnamed_addr constant [38 x i8] c"../openssl/test/radix/quic_bindings.c\00", align 1
@.str.86 = private unnamed_addr constant [10 x i8] c"NUM_SLOTS\00", align 1
@radix_thread = internal global i32 0, align 4
@.str.93 = private unnamed_addr constant [4 x i8] c"idx\00", align 1
@.str.94 = private unnamed_addr constant [24 x i8] c"*p_ssl = RT()->ssl[idx]\00", align 1
@.str.95 = private unnamed_addr constant [37 x i8] c"expect_slot_ssl(fctx, (0), &((ssl)))\00", align 1
@.str.96 = private unnamed_addr constant [2 x i8] c"r\00", align 1
@.str.113 = private unnamed_addr constant [66 x i8] c"TERP_stk_pop(((fctx->terp)), &(((buf_len))), sizeof(((buf_len))))\00", align 1
@.str.114 = private unnamed_addr constant [58 x i8] c"TERP_stk_pop(((fctx->terp)), &(((buf))), sizeof(((buf))))\00", align 1
@.str.115 = private unnamed_addr constant [14 x i8] c"bytes_written\00", align 1

; Function Attrs: nounwind uwtable
define internal ptr @radix_get_thread() #0 {
  %1 = call ptr @CRYPTO_THREAD_get_local(ptr noundef @radix_thread)
  ret ptr %1
}

; Function Attrs: nounwind uwtable
define internal i32 @expect_slot_ssl(ptr noundef %0, i64 noundef %1, ptr noundef %2) #0 {
  %4 = alloca i32, align 4
  %5 = alloca ptr, align 8
  %6 = alloca i64, align 8
  %7 = alloca ptr, align 8
  store ptr %0, ptr %5, align 8, !tbaa !42
  store i64 %1, ptr %6, align 8, !tbaa !19
  store ptr %2, ptr %7, align 8, !tbaa !90
  %8 = load i64, ptr %6, align 8, !tbaa !19
  %9 = call i32 @test_size_t_lt(ptr noundef @.str.74, i32 noundef 670, ptr noundef @.str.93, ptr noundef @.str.86, i64 noundef %8, i64 noundef 8)
  %10 = icmp ne i32 %9, 0
  br i1 %10, label %11, label %20

11:                                               ; preds = %3
  %12 = call ptr @radix_get_thread()
  %13 = getelementptr inbounds nuw %struct.radix_thread_st, ptr %12, i32 0, i32 6
  %14 = load i64, ptr %6, align 8, !tbaa !19
  %15 = getelementptr inbounds nuw [8 x ptr], ptr %13, i64 0, i64 %14
  %16 = load ptr, ptr %15, align 8, !tbaa !49
  %17 = load ptr, ptr %7, align 8, !tbaa !90
  store ptr %16, ptr %17, align 8, !tbaa !49
  %18 = call i32 @test_ptr(ptr noundef @.str.74, i32 noundef 671, ptr noundef @.str.94, ptr noundef %16)
  %19 = icmp ne i32 %18, 0
  br i1 %19, label %21, label %20

20:                                               ; preds = %11, %3
  store i32 0, ptr %4, align 4
  br label %22

21:                                               ; preds = %11
  store i32 1, ptr %4, align 4
  br label %22

22:                                               ; preds = %21, %20
  %23 = load i32, ptr %4, align 4
  ret i32 %23
}

; Function Attrs: inlinehint nounwind uwtable
define internal i32 @TERP_stk_pop(ptr noundef %0, ptr noundef %1, i64 noundef %2) #5 {
  %4 = alloca i32, align 4
  %5 = alloca ptr, align 8
  %6 = alloca ptr, align 8
  %7 = alloca i64, align 8
  store ptr %0, ptr %5, align 8, !tbaa !75
  store ptr %1, ptr %6, align 8, !tbaa !41
  store i64 %2, ptr %7, align 8, !tbaa !19
  %8 = load ptr, ptr %5, align 8, !tbaa !75
  %9 = getelementptr inbounds nuw %struct.terp_st, ptr %8, i32 0, i32 6
  %10 = load ptr, ptr %9, align 8, !tbaa !26
  %11 = load ptr, ptr %5, align 8, !tbaa !75
  %12 = getelementptr inbounds nuw %struct.terp_st, ptr %11, i32 0, i32 5
  %13 = load ptr, ptr %12, align 8, !tbaa !32
  %14 = ptrtoint ptr %10 to i64
  %15 = ptrtoint ptr %13 to i64
  %16 = sub i64 %14, %15
  %17 = load i64, ptr %7, align 8, !tbaa !19
  %18 = call i32 @test_size_t_ge(ptr noundef @.str.42, i32 noundef 629, ptr noundef @.str.55, ptr noundef @.str.56, i64 noundef %16, i64 noundef %17)
  %19 = icmp ne i32 %18, 0
  br i1 %19, label %21, label %20

20:                                               ; preds = %3
  store i32 0, ptr %4, align 4
  br label %32

21:                                               ; preds = %3
  %22 = load ptr, ptr %6, align 8, !tbaa !41
  %23 = load ptr, ptr %5, align 8, !tbaa !75
  %24 = getelementptr inbounds nuw %struct.terp_st, ptr %23, i32 0, i32 5
  %25 = load ptr, ptr %24, align 8, !tbaa !32
  %26 = load i64, ptr %7, align 8, !tbaa !19
  call void @llvm.memcpy.p0.p0.i64(ptr align 1 %22, ptr align 1 %25, i64 %26, i1 false)
  %27 = load i64, ptr %7, align 8, !tbaa !19
  %28 = load ptr, ptr %5, align 8, !tbaa !75
  %29 = getelementptr inbounds nuw %struct.terp_st, ptr %28, i32 0, i32 5
  %30 = load ptr, ptr %29, align 8, !tbaa !32
  %31 = getelementptr inbounds nuw i8, ptr %30, i64 %27
  store ptr %31, ptr %29, align 8, !tbaa !32
  store i32 1, ptr %4, align 4
  br label %32

32:                                               ; preds = %21, %20
  %33 = load i32, ptr %4, align 4
  ret i32 %33
}

; Function Attrs: nounwind uwtable
define internal i32 @hf_write(ptr noundef %0) #0 {
  %2 = alloca ptr, align 8
  %3 = alloca i32, align 4
  %4 = alloca i32, align 4
  %5 = alloca ptr, align 8
  %6 = alloca ptr, align 8
  %7 = alloca i64, align 8
  %8 = alloca i64, align 8
  store ptr %0, ptr %2, align 8, !tbaa !42
  call void @llvm.lifetime.start.p0(i64 4, ptr %3) #9
  store i32 0, ptr %3, align 4, !tbaa !9
  call void @llvm.lifetime.start.p0(i64 4, ptr %4) #9
  call void @llvm.lifetime.start.p0(i64 8, ptr %5) #9
  call void @llvm.lifetime.start.p0(i64 8, ptr %6) #9
  call void @llvm.lifetime.start.p0(i64 8, ptr %7) #9
  call void @llvm.lifetime.start.p0(i64 8, ptr %8) #9
  store i64 0, ptr %8, align 8, !tbaa !19
  br label %9

9:                                                ; preds = %1
  br label %10

10:                                               ; preds = %9
  call void @llvm.memset.p0.i64(ptr align 8 %7, i8 0, i64 8, i1 false)
  %11 = load ptr, ptr %2, align 8, !tbaa !42
  %12 = getelementptr inbounds nuw %struct.func_ctx_st, ptr %11, i32 0, i32 0
  %13 = load ptr, ptr %12, align 8, !tbaa !46
  %14 = call i32 @TERP_stk_pop(ptr noundef %13, ptr noundef %7, i64 noundef 8)
  %15 = icmp ne i32 %14, 0
  %16 = zext i1 %15 to i32
  %17 = call i32 @test_true(ptr noundef @.str.44, i32 noundef 546, ptr noundef @.str.113, i32 noundef %16)
  %18 = icmp ne i32 %17, 0
  br i1 %18, label %20, label %19

19:                                               ; preds = %10
  br label %70

20:                                               ; preds = %10
  br label %21

21:                                               ; preds = %20
  br label %22

22:                                               ; preds = %21
  br label %23

23:                                               ; preds = %22
  call void @llvm.memset.p0.i64(ptr align 8 %6, i8 0, i64 8, i1 false)
  %24 = load ptr, ptr %2, align 8, !tbaa !42
  %25 = getelementptr inbounds nuw %struct.func_ctx_st, ptr %24, i32 0, i32 0
  %26 = load ptr, ptr %25, align 8, !tbaa !46
  %27 = call i32 @TERP_stk_pop(ptr noundef %26, ptr noundef %6, i64 noundef 8)
  %28 = icmp ne i32 %27, 0
  %29 = zext i1 %28 to i32
  %30 = call i32 @test_true(ptr noundef @.str.44, i32 noundef 546, ptr noundef @.str.114, i32 noundef %29)
  %31 = icmp ne i32 %30, 0
  br i1 %31, label %33, label %32

32:                                               ; preds = %23
  br label %70

33:                                               ; preds = %23
  br label %34

34:                                               ; preds = %33
  br label %35

35:                                               ; preds = %34
  br label %36

36:                                               ; preds = %35
  br label %37

37:                                               ; preds = %36
  br label %38

38:                                               ; preds = %37
  store ptr null, ptr %5, align 8, !tbaa !49
  %39 = load ptr, ptr %2, align 8, !tbaa !42
  %40 = call i32 @expect_slot_ssl(ptr noundef %39, i64 noundef 0, ptr noundef %5)
  %41 = icmp ne i32 %40, 0
  %42 = zext i1 %41 to i32
  %43 = call i32 @test_true(ptr noundef @.str.44, i32 noundef 547, ptr noundef @.str.95, i32 noundef %42)
  %44 = icmp ne i32 %43, 0
  br i1 %44, label %46, label %45

45:                                               ; preds = %38
  br label %70

46:                                               ; preds = %38
  br label %47

47:                                               ; preds = %46
  br label %48

48:                                               ; preds = %47
  %49 = load ptr, ptr %5, align 8, !tbaa !49
  %50 = load ptr, ptr %6, align 8, !tbaa !41
  %51 = load i64, ptr %7, align 8, !tbaa !19
  %52 = call i32 @SSL_write_ex(ptr noundef %49, ptr noundef %50, i64 noundef %51, ptr noundef %8)
  store i32 %52, ptr %4, align 4, !tbaa !9
  %53 = load i32, ptr %4, align 4, !tbaa !9
  %54 = icmp ne i32 %53, 0
  %55 = zext i1 %54 to i32
  %56 = call i32 @test_true(ptr noundef @.str.44, i32 noundef 550, ptr noundef @.str.96, i32 noundef %55)
  %57 = icmp ne i32 %56, 0
  br i1 %57, label %58, label %68

58:                                               ; preds = %48
  %59 = load ptr, ptr %5, align 8, !tbaa !49
  %60 = load i32, ptr %4, align 4, !tbaa !9
  %61 = call i32 @check_consistent_want(ptr noundef %59, i32 noundef %60)
  %62 = icmp ne i32 %61, 0
  br i1 %62, label %63, label %68

63:                                               ; preds = %58
  %64 = load i64, ptr %8, align 8, !tbaa !19
  %65 = load i64, ptr %7, align 8, !tbaa !19
  %66 = call i32 @test_size_t_eq(ptr noundef @.str.44, i32 noundef 552, ptr noundef @.str.115, ptr noundef @.str.56, i64 noundef %64, i64 noundef %65)
  %67 = icmp ne i32 %66, 0
  br i1 %67, label %69, label %68

68:                                               ; preds = %63, %58, %48
  br label %70

69:                                               ; preds = %63
  store i32 1, ptr %3, align 4, !tbaa !9
  br label %70

70:                                               ; preds = %69, %68, %45, %32, %19
  %71 = load i32, ptr %3, align 4, !tbaa !9
  call void @llvm.lifetime.end.p0(i64 8, ptr %8) #9
  call void @llvm.lifetime.end.p0(i64 8, ptr %7) #9
  call void @llvm.lifetime.end.p0(i64 8, ptr %6) #9
  call void @llvm.lifetime.end.p0(i64 8, ptr %5) #9
  call void @llvm.lifetime.end.p0(i64 4, ptr %4) #9
  call void @llvm.lifetime.end.p0(i64 4, ptr %3) #9
  ret i32 %71
}