; Function Attrs: nounwind uwtable
define internal range(i32 0, 2) i32 @hf_write(ptr noundef readonly captures(none) %0) #1 {
  %2 = alloca i64, align 8
  call void @llvm.lifetime.start.p0(i64 8, ptr nonnull %2) #12
  store i64 0, ptr %2, align 8, !tbaa !82
  %3 = load ptr, ptr %0, align 8, !tbaa !107
  %4 = getelementptr inbounds nuw i8, ptr %3, i64 112
  %5 = load ptr, ptr %4, align 8, !tbaa !100
  %6 = getelementptr inbounds nuw i8, ptr %3, i64 104
  %7 = load ptr, ptr %6, align 8, !tbaa !95
  %8 = ptrtoint ptr %5 to i64
  %9 = ptrtoint ptr %7 to i64
  %10 = sub i64 %8, %9
  %11 = tail call i32 @test_size_t_ge(ptr noundef nonnull @.str.42, i32 noundef 629, ptr noundef nonnull @.str.55, ptr noundef nonnull @.str.56, i64 noundef %10, i64 noundef 8) #12
  %.not.i = icmp eq i32 %11, 0
  br i1 %.not.i, label %TERP_stk_pop.exit, label %12

12:                                               ; preds = %1
  %13 = load ptr, ptr %6, align 8, !tbaa !95
  %14 = load i64, ptr %13, align 1
  %15 = getelementptr inbounds nuw i8, ptr %13, i64 8
  store ptr %15, ptr %6, align 8, !tbaa !95
  br label %TERP_stk_pop.exit

TERP_stk_pop.exit:                                ; preds = %1, %12
  %.018 = phi i64 [ 0, %1 ], [ %14, %12 ]
  %.0.i = phi i32 [ 0, %1 ], [ 1, %12 ]
  %16 = tail call i32 @test_true(ptr noundef nonnull @.str.44, i32 noundef 546, ptr noundef nonnull @.str.113, i32 noundef %.0.i) #12
  %.not = icmp eq i32 %16, 0
  br i1 %.not, label %51, label %17

17:                                               ; preds = %TERP_stk_pop.exit
  %18 = load ptr, ptr %0, align 8, !tbaa !107
  %19 = getelementptr inbounds nuw i8, ptr %18, i64 112
  %20 = load ptr, ptr %19, align 8, !tbaa !100
  %21 = getelementptr inbounds nuw i8, ptr %18, i64 104
  %22 = load ptr, ptr %21, align 8, !tbaa !95
  %23 = ptrtoint ptr %20 to i64
  %24 = ptrtoint ptr %22 to i64
  %25 = sub i64 %23, %24
  %26 = tail call i32 @test_size_t_ge(ptr noundef nonnull @.str.42, i32 noundef 629, ptr noundef nonnull @.str.55, ptr noundef nonnull @.str.56, i64 noundef %25, i64 noundef 8) #12
  %.not.i10 = icmp eq i32 %26, 0
  br i1 %.not.i10, label %TERP_stk_pop.exit12, label %27

27:                                               ; preds = %17
  %28 = load ptr, ptr %21, align 8, !tbaa !95
  %29 = load i64, ptr %28, align 1
  %30 = inttoptr i64 %29 to ptr
  %31 = getelementptr inbounds nuw i8, ptr %28, i64 8
  store ptr %31, ptr %21, align 8, !tbaa !95
  br label %TERP_stk_pop.exit12

TERP_stk_pop.exit12:                              ; preds = %17, %27
  %.019 = phi ptr [ null, %17 ], [ %30, %27 ]
  %.0.i11 = phi i32 [ 0, %17 ], [ 1, %27 ]
  %32 = tail call i32 @test_true(ptr noundef nonnull @.str.44, i32 noundef 546, ptr noundef nonnull @.str.114, i32 noundef %.0.i11) #12
  %.not5 = icmp eq i32 %32, 0
  br i1 %.not5, label %51, label %33

33:                                               ; preds = %TERP_stk_pop.exit12
  %34 = tail call i32 @test_size_t_lt(ptr noundef nonnull @.str.74, i32 noundef 670, ptr noundef nonnull @.str.93, ptr noundef nonnull @.str.86, i64 noundef 0, i64 noundef 8) #12
  %.not.i13 = icmp eq i32 %34, 0
  br i1 %.not.i13, label %expect_slot_ssl.exit, label %35

35:                                               ; preds = %33
  %36 = tail call ptr @CRYPTO_THREAD_get_local(ptr noundef nonnull @radix_thread) #12
  %37 = getelementptr inbounds nuw i8, ptr %36, i64 104
  %38 = load ptr, ptr %37, align 8, !tbaa !49
  %39 = tail call i32 @test_ptr(ptr noundef nonnull @.str.74, i32 noundef 671, ptr noundef nonnull @.str.94, ptr noundef %38) #12
  %.not3.i = icmp ne i32 %39, 0
  %spec.select.i = zext i1 %.not3.i to i32
  br label %expect_slot_ssl.exit

expect_slot_ssl.exit:                             ; preds = %33, %35
  %.020 = phi ptr [ null, %33 ], [ %38, %35 ]
  %.0.i14 = phi i32 [ 0, %33 ], [ %spec.select.i, %35 ]
  %40 = tail call i32 @test_true(ptr noundef nonnull @.str.44, i32 noundef 547, ptr noundef nonnull @.str.95, i32 noundef %.0.i14) #12
  %.not6 = icmp eq i32 %40, 0
  br i1 %.not6, label %51, label %41

41:                                               ; preds = %expect_slot_ssl.exit
  %42 = call i32 @SSL_write_ex(ptr noundef %.020, ptr noundef %.019, i64 noundef %.018, ptr noundef nonnull %2) #12
  %43 = icmp ne i32 %42, 0
  %44 = zext i1 %43 to i32
  %45 = call i32 @test_true(ptr noundef nonnull @.str.44, i32 noundef 550, ptr noundef nonnull @.str.96, i32 noundef %44) #12
  %.not7 = icmp eq i32 %45, 0
  br i1 %.not7, label %51, label %46

46:                                               ; preds = %41
  %47 = call fastcc i32 @check_consistent_want(ptr noundef %.020, i32 noundef %42)
  %.not8 = icmp eq i32 %47, 0
  br i1 %.not8, label %51, label %48

48:                                               ; preds = %46
  %49 = load i64, ptr %2, align 8, !tbaa !82
  %50 = call i32 @test_size_t_eq(ptr noundef nonnull @.str.44, i32 noundef 552, ptr noundef nonnull @.str.115, ptr noundef nonnull @.str.56, i64 noundef %49, i64 noundef %.018) #12
  %.not9 = icmp ne i32 %50, 0
  %spec.select = zext i1 %.not9 to i32
  br label %51

51:                                               ; preds = %48, %41, %46, %expect_slot_ssl.exit, %TERP_stk_pop.exit12, %TERP_stk_pop.exit
  %.0 = phi i32 [ 0, %46 ], [ 0, %41 ], [ 0, %expect_slot_ssl.exit ], [ 0, %TERP_stk_pop.exit12 ], [ 0, %TERP_stk_pop.exit ], [ %spec.select, %48 ]
  call void @llvm.lifetime.end.p0(i64 8, ptr nonnull %2) #12
  ret i32 %.0
}